; Function Attrs: nounwind uwtable
define internal fastcc void @increment_simple_rowgroup_ctr(ptr noundef %0, i32 noundef %1) unnamed_addr #0 {
  %3 = alloca [1 x i8], align 1
  %4 = alloca ptr, align 8
  %5 = getelementptr inbounds nuw i8, ptr %0, i64 544
  %6 = load ptr, ptr %5, align 8, !tbaa !49
  %7 = getelementptr inbounds nuw i8, ptr %6, i64 132
  %8 = load i32, ptr %7, align 4, !tbaa !73
  %.not = icmp ne i32 %8, 0
  %9 = getelementptr inbounds nuw i8, ptr %0, i64 412
  %10 = load i32, ptr %9, align 4, !tbaa !75
  %11 = icmp eq i32 %10, 2
  %or.cond32 = select i1 %.not, i1 %11, i1 false
  br i1 %or.cond32, label %12, label %._crit_edge

12:                                               ; preds = %2
  %13 = getelementptr inbounds nuw i8, ptr %0, i64 616
  %14 = load ptr, ptr %13, align 8, !tbaa !101
  %.not.i = icmp eq ptr %14, null
  br i1 %.not.i, label %19, label %15

15:                                               ; preds = %12
  %16 = getelementptr inbounds nuw i8, ptr %14, i64 8
  %17 = load ptr, ptr %16, align 8, !tbaa !102
  %.not30.i = icmp eq ptr %17, null
  br i1 %.not30.i, label %19, label %18

18:                                               ; preds = %15
  store ptr @noop_convert, ptr %16, align 8, !tbaa !102
  br label %19

19:                                               ; preds = %18, %15, %12
  %.024.i = phi ptr [ %17, %18 ], [ null, %15 ], [ null, %12 ]
  %20 = getelementptr inbounds nuw i8, ptr %0, i64 624
  %21 = load ptr, ptr %20, align 8, !tbaa !104
  %.not31.i = icmp eq ptr %21, null
  br i1 %.not31.i, label %26, label %22

22:                                               ; preds = %19
  %23 = getelementptr inbounds nuw i8, ptr %21, i64 8
  %24 = load ptr, ptr %23, align 8, !tbaa !105
  %.not32.i = icmp eq ptr %24, null
  br i1 %.not32.i, label %26, label %25

25:                                               ; preds = %22
  store ptr @noop_quantize, ptr %23, align 8, !tbaa !105
  br label %26

26:                                               ; preds = %19, %22, %25
  %.023.i = phi ptr [ %24, %25 ], [ null, %22 ], [ null, %19 ]
  %27 = getelementptr inbounds nuw i8, ptr %0, i64 608
  %28 = load ptr, ptr %27, align 8, !tbaa !76
  %29 = getelementptr inbounds nuw i8, ptr %28, i64 80
  %.not37.i = icmp eq i32 %1, 0
  br i1 %.not37.i, label %._crit_edge.i, label %.lr.ph.i

.lr.ph.i:                                         ; preds = %26, %.lr.ph.i
  %.036.i = phi i32 [ %31, %.lr.ph.i ], [ 0, %26 ]
  %30 = tail call i32 @jpeg_read_scanlines(ptr noundef %0, ptr noundef nonnull %29, i32 noundef 1)
  %31 = add nuw i32 %.036.i, 1
  %exitcond.not.i = icmp eq i32 %31, %1
  br i1 %exitcond.not.i, label %._crit_edge.i, label %.lr.ph.i, !llvm.loop !107

._crit_edge.i:                                    ; preds = %.lr.ph.i, %26
  %.not34.i = icmp eq ptr %.024.i, null
  br i1 %.not34.i, label %35, label %32

32:                                               ; preds = %._crit_edge.i
  %33 = load ptr, ptr %13, align 8, !tbaa !101
  %34 = getelementptr inbounds nuw i8, ptr %33, i64 8
  store ptr %.024.i, ptr %34, align 8, !tbaa !102
  br label %35

35:                                               ; preds = %32, %._crit_edge.i
  %.not35.i = icmp eq ptr %.023.i, null
  br i1 %.not35.i, label %read_and_discard_scanlines.exit, label %36

36:                                               ; preds = %35
  %37 = load ptr, ptr %20, align 8, !tbaa !104
  %38 = getelementptr inbounds nuw i8, ptr %37, i64 8
  store ptr %.023.i, ptr %38, align 8, !tbaa !105
  br label %read_and_discard_scanlines.exit

._crit_edge:                                      ; preds = %2
  %39 = getelementptr inbounds nuw i8, ptr %0, i64 552
  %40 = load ptr, ptr %39, align 8, !tbaa !56
  %41 = udiv i32 %1, %10
  %42 = getelementptr inbounds nuw i8, ptr %40, i64 116
  %43 = load i32, ptr %42, align 4, !tbaa !115
  %44 = add i32 %43, %41
  store i32 %44, ptr %42, align 4, !tbaa !115
  %45 = urem i32 %1, %10
  %46 = sub nuw i32 %1, %45
  %47 = getelementptr inbounds nuw i8, ptr %0, i64 168
  %48 = load i32, ptr %47, align 8, !tbaa !52
  %49 = add i32 %46, %48
  store i32 %49, ptr %47, align 8, !tbaa !52
  call void @llvm.lifetime.start.p0(i64 1, ptr nonnull %3) #5
  store i8 0, ptr %3, align 1
  call void @llvm.lifetime.start.p0(i64 8, ptr nonnull %4) #5
  store ptr %3, ptr %4, align 8, !tbaa !100
  %50 = getelementptr inbounds nuw i8, ptr %0, i64 616
  %51 = load ptr, ptr %50, align 8, !tbaa !101
  %.not.i15 = icmp eq ptr %51, null
  br i1 %.not.i15, label %56, label %52

52:                                               ; preds = %._crit_edge
  %53 = getelementptr inbounds nuw i8, ptr %51, i64 8
  %54 = load ptr, ptr %53, align 8, !tbaa !102
  %.not30.i16 = icmp eq ptr %54, null
  br i1 %.not30.i16, label %56, label %55

55:                                               ; preds = %52
  store ptr @noop_convert, ptr %53, align 8, !tbaa !102
  br label %56

56:                                               ; preds = %55, %52, %._crit_edge
  %.025.i17 = phi ptr [ %4, %55 ], [ null, %52 ], [ null, %._crit_edge ]
  %.024.i18 = phi ptr [ %54, %55 ], [ null, %52 ], [ null, %._crit_edge ]
  %57 = getelementptr inbounds nuw i8, ptr %0, i64 624
  %58 = load ptr, ptr %57, align 8, !tbaa !104
  %.not31.i19 = icmp eq ptr %58, null
  br i1 %.not31.i19, label %63, label %59

59:                                               ; preds = %56
  %60 = getelementptr inbounds nuw i8, ptr %58, i64 8
  %61 = load ptr, ptr %60, align 8, !tbaa !105
  %.not32.i20 = icmp eq ptr %61, null
  br i1 %.not32.i20, label %63, label %62

62:                                               ; preds = %59
  store ptr @noop_quantize, ptr %60, align 8, !tbaa !105
  br label %63

63:                                               ; preds = %62, %59, %56
  %.023.i21 = phi ptr [ %61, %62 ], [ null, %59 ], [ null, %56 ]
  %64 = icmp eq i32 %10, 2
  %or.cond = and i1 %.not, %64
  br i1 %or.cond, label %65, label %69

65:                                               ; preds = %63
  %66 = getelementptr inbounds nuw i8, ptr %0, i64 608
  %67 = load ptr, ptr %66, align 8, !tbaa !76
  %68 = getelementptr inbounds nuw i8, ptr %67, i64 80
  br label %69

69:                                               ; preds = %65, %63
  %.1.i23 = phi ptr [ %68, %65 ], [ %.025.i17, %63 ]
  %.not37.i24 = icmp eq i32 %45, 0
  br i1 %.not37.i24, label %._crit_edge.i28, label %.lr.ph.i25

.lr.ph.i25:                                       ; preds = %69, %.lr.ph.i25
  %.036.i26 = phi i32 [ %71, %.lr.ph.i25 ], [ 0, %69 ]
  %70 = call i32 @jpeg_read_scanlines(ptr noundef %0, ptr noundef %.1.i23, i32 noundef 1)
  %71 = add nuw i32 %.036.i26, 1
  %exitcond.not.i27 = icmp eq i32 %71, %45
  br i1 %exitcond.not.i27, label %._crit_edge.i28, label %.lr.ph.i25, !llvm.loop !107

._crit_edge.i28:                                  ; preds = %.lr.ph.i25, %69
  %.not34.i29 = icmp eq ptr %.024.i18, null
  br i1 %.not34.i29, label %75, label %72

72:                                               ; preds = %._crit_edge.i28
  %73 = load ptr, ptr %50, align 8, !tbaa !101
  %74 = getelementptr inbounds nuw i8, ptr %73, i64 8
  store ptr %.024.i18, ptr %74, align 8, !tbaa !102
  br label %75

75:                                               ; preds = %72, %._crit_edge.i28
  %.not35.i30 = icmp eq ptr %.023.i21, null
  br i1 %.not35.i30, label %read_and_discard_scanlines.exit31, label %76

76:                                               ; preds = %75
  %77 = load ptr, ptr %57, align 8, !tbaa !104
  %78 = getelementptr inbounds nuw i8, ptr %77, i64 8
  store ptr %.023.i21, ptr %78, align 8, !tbaa !105
  br label %read_and_discard_scanlines.exit31

read_and_discard_scanlines.exit31:                ; preds = %75, %76
  call void @llvm.lifetime.end.p0(i64 8, ptr nonnull %4) #5
  call void @llvm.lifetime.end.p0(i64 1, ptr nonnull %3) #5
  br label %read_and_discard_scanlines.exit

read_and_discard_scanlines.exit:                  ; preds = %36, %35, %read_and_discard_scanlines.exit31
  ret void
}